; Function Attrs: mustprogress uwtable
define noundef double @_ZNK8QuantLib3CDO12premiumValueEv(ptr noundef nonnull align 8 dereferenceable(488) %this) local_unnamed_addr #8 align 2 {
entry:
  %vtable = load ptr, ptr %this, align 8, !tbaa !33
  %vfn = getelementptr inbounds i8, ptr %vtable, i64 24
  %0 = load ptr, ptr %vfn, align 8
  tail call void %0(ptr noundef nonnull align 8 dereferenceable(104) %this)
  %premiumValue_ = getelementptr inbounds nuw i8, ptr %this, i64 464
  %1 = load double, ptr %premiumValue_, align 8, !tbaa !189
  ret double %1
}